(dp0
S'METTS MARK'
p1
(dp2
S'to_messages'
p3
I807
sS'deferral_payments'
p4
S'NaN'
p5
sS'expenses'
p6
I94299
sS'poi'
p7
I00
sS'long_term_incentive'
p8
g5
sS'email_address'
p9
S'mark.metts@enron.com'
p10
sS'deferred_income'
p11
g5
sS'fraction_from_poi'
p12
F0.04708798017348203
sS'restricted_stock_deferred'
p13
g5
sS'shared_receipt_with_poi'
p14
I702
sS'loan_advances'
p15
g5
sS'from_messages'
p16
I29
sS'other'
p17
I1740
sS'director_fees'
p18
g5
sS'bonus'
p19
I600000
sS'total_stock_value'
p20
I585062
sS'from_poi_to_this_person'
p21
I38
sS'from_this_person_to_poi'
p22
I1
sS'text_learn_pred'
p23
cnumpy.core.multiarray
scalar
p24
(cnumpy
dtype
p25
(S'b1'
p26
I0
I1
tp27
Rp28
(I3
S'|'
p29
NNNI-1
I-1
I0
tp30
bS'\x00'
p31
tp32
Rp33
sS'restricted_stock'
p34
I585062
sS'salary'
p35
I365788
sS'total_payments'
p36
I1061827
sS'fraction_to_poi'
p37
F0.034482758620689655
sS'exercised_stock_options'
p38
g5
ssS'BAXTER JOHN C'
p39
(dp40
g3
g5
sg4
I1295738
sg6
I11200
sg7
I00
sg8
I1586055
sg9
g5
sg11
I-1386055
sg12
I0
sg13
g5
sg14
g5
sg15
g5
sg16
g5
sg17
I2660303
sg18
g5
sg19
I1200000
sg20
I10623258
sg21
g5
sg22
g5
sg23
S'NaN'
p41
sg34
I3942714
sg35
I267102
sg36
I5634343
sg37
I0
sg38
I6680544
ssS'ELLIOTT STEVEN'
p42
(dp43
g3
g5
sg4
g5
sg6
I78552
sg7
I00
sg8
g5
sg9
S'steven.elliott@enron.com'
p44
sg11
I-400729
sg12
I0
sg13
g5
sg14
g5
sg15
g5
sg16
g5
sg17
I12961
sg18
g5
sg19
I350000
sg20
I6678735
sg21
g5
sg22
g5
sg23
g41
sg34
I1788391
sg35
I170941
sg36
I211725
sg37
I0
sg38
I4890344
ssS'CORDES WILLIAM R'
p45
(dp46
g3
I764
sg4
g5
sg6
g5
sg7
I00
sg8
g5
sg9
S'bill.cordes@enron.com'
p47
sg11
g5
sg12
F0.013089005235602094
sg13
g5
sg14
I58
sg15
g5
sg16
I12
sg17
g5
sg18
g5
sg19
g5
sg20
I1038185
sg21
I10
sg22
I0
sg23
g33
sg34
I386335
sg35
g5
sg36
g5
sg37
F0.0
sg38
I651850
ssS'HANNON KEVIN P'
p48
(dp49
g3
I1045
sg4
g5
sg6
I34039
sg7
I01
sg8
I1617011
sg9
S'kevin.hannon@enron.com'
p50
sg11
I-3117011
sg12
F0.03062200956937799
sg13
g5
sg14
I1035
sg15
g5
sg16
I32
sg17
I11350
sg18
g5
sg19
I1500000
sg20
I6391065
sg21
I32
sg22
I21
sg23
g33
sg34
I853064
sg35
I243293
sg36
I288682
sg37
F0.65625
sg38
I5538001
ssS'MORDAUNT KRISTINA M'
p51
(dp52
g3
g5
sg4
g5
sg6
I35018
sg7
I00
sg8
g5
sg9
S'kristina.mordaunt@enron.com'
p53
sg11
g5
sg12
I0
sg13
g5
sg14
g5
sg15
g5
sg16
g5
sg17
I1411
sg18
g5
sg19
I325000
sg20
I208510
sg21
g5
sg22
g5
sg23
g41
sg34
I208510
sg35
I267093
sg36
I628522
sg37
I0
sg38
g5
ssS'MEYER ROCKFORD G'
p54
(dp55
g3
I232
sg4
I1848227
sg6
g5
sg7
I00
sg8
g5
sg9
S'rockford.meyer@enron.com'
p56
sg11
g5
sg12
F0.0
sg13
g5
sg14
I22
sg15
g5
sg16
I28
sg17
g5
sg18
g5
sg19
g5
sg20
I955873
sg21
I0
sg22
I0
sg23
g33
sg34
I462384
sg35
g5
sg36
I1848227
sg37
F0.0
sg38
I493489
ssS'MCMAHON JEFFREY'
p57
(dp58
g3
I2355
sg4
g5
sg6
I137108
sg7
I00
sg8
I694862
sg9
S'jeffrey.mcmahon@enron.com'
p59
sg11
g5
sg12
F0.024628450106157114
sg13
g5
sg14
I2228
sg15
g5
sg16
I48
sg17
I297353
sg18
g5
sg19
I2600000
sg20
I1662855
sg21
I58
sg22
I26
sg23
g33
sg34
I558801
sg35
I370448
sg36
I4099771
sg37
F0.5416666666666666
sg38
I1104054
ssS'HORTON STANLEY C'
p60
(dp61
g3
I2350
sg4
I3131860
sg6
g5
sg7
I00
sg8
g5
sg9
S'stanley.horton@enron.com'
p62
sg11
g5
sg12
F0.01872340425531915
sg13
g5
sg14
I1074
sg15
g5
sg16
I1073
sg17
g5
sg18
g5
sg19
g5
sg20
I7256648
sg21
I44
sg22
I15
sg23
g33
sg34
I2046079
sg35
g5
sg36
I3131860
sg37
F0.013979496738117428
sg38
I5210569
ssS'PIPER GREGORY F'
p63
(dp64
g3
I1238
sg4
I1130036
sg6
I43057
sg7
I00
sg8
g5
sg9
S'greg.piper@enron.com'
p65
sg11
I-33333
sg12
F0.049273021001615507
sg13
I-409554
sg14
I742
sg15
g5
sg16
I222
sg17
I778
sg18
g5
sg19
I400000
sg20
I880290
sg21
I61
sg22
I48
sg23
g33
sg34
I409554
sg35
I197091
sg36
I1737629
sg37
F0.21621621621621623
sg38
I880290
ssS'HUMPHREY GENE E'
p66
(dp67
g3
I128
sg4
I2964506
sg6
I4994
sg7
I00
sg8
g5
sg9
S'gene.humphrey@enron.com'
p68
sg11
g5
sg12
F0.078125
sg13
g5
sg14
I119
sg15
g5
sg16
I17
sg17
g5
sg18
g5
sg19
g5
sg20
I2282768
sg21
I10
sg22
I17
sg23
g33
sg34
g5
sg35
I130724
sg36
I3100224
sg37
F1.0
sg38
I2282768
ssS'UMANOFF ADAM S'
p69
(dp70
g3
I111
sg4
g5
sg6
I53122
sg7
I00
sg8
g5
sg9
S'adam.umanoff@enron.com'
p71
sg11
g5
sg12
F0.10810810810810811
sg13
g5
sg14
I41
sg15
g5
sg16
I18
sg17
g5
sg18
g5
sg19
I788750
sg20
g5
sg21
I12
sg22
I0
sg23
g33
sg34
g5
sg35
I288589
sg36
I1130461
sg37
F0.0
sg38
g5
ssS'BLACHMAN JEREMY M'
p72
(dp73
g3
I2475
sg4
g5
sg6
I84208
sg7
I00
sg8
I831809
sg9
S'jeremy.blachman@enron.com'
p74
sg11
g5
sg12
F0.010101010101010102
sg13
g5
sg14
I2326
sg15
g5
sg16
I14
sg17
I272
sg18
g5
sg19
I850000
sg20
I954354
sg21
I25
sg22
I2
sg23
g33
sg34
I189041
sg35
I248546
sg36
I2014835
sg37
F0.14285714285714285
sg38
I765313
ssS'SUNDE MARTIN'
p75
(dp76
g3
I2647
sg4
g5
sg6
g5
sg7
I00
sg8
I476451
sg9
S'marty.sunde@enron.com'
p77
sg11
g5
sg12
F0.013978088401964487
sg13
g5
sg14
I2565
sg15
g5
sg16
I38
sg17
I111122
sg18
g5
sg19
I700000
sg20
I698920
sg21
I37
sg22
I13
sg23
g33
sg34
I698920
sg35
I257486
sg36
I1545059
sg37
F0.34210526315789475
sg38
g5
ssS'GIBBS DANA R'
p78
(dp79
g3
I169
sg4
I504610
sg6
g5
sg7
I00
sg8
I461912
sg9
S'dana.gibbs@enron.com'
p80
sg11
g5
sg12
F0.0
sg13
g5
sg14
I23
sg15
g5
sg16
I12
sg17
g5
sg18
g5
sg19
g5
sg20
I2218275
sg21
I0
sg22
I0
sg23
g33
sg34
g5
sg35
g5
sg36
I966522
sg37
F0.0
sg38
I2218275
ssS'LOWRY CHARLES P'
p81
(dp82
g3
g5
sg4
g5
sg6
g5
sg7
I00
sg8
g5
sg9
g5
sg11
g5
sg12
I0
sg13
I-153686
sg14
g5
sg15
g5
sg16
g5
sg17
g5
sg18
g5
sg19
g5
sg20
I372205
sg21
g5
sg22
g5
sg23
g41
sg34
I153686
sg35
g5
sg36
g5
sg37
I0
sg38
I372205
ssS'COLWELL WESLEY'
p83
(dp84
g3
I1758
sg4
I27610
sg6
I16514
sg7
I01
sg8
g5
sg9
S'wes.colwell@enron.com'
p85
sg11
I-144062
sg12
F0.13651877133105803
sg13
g5
sg14
I1132
sg15
g5
sg16
I40
sg17
I101740
sg18
g5
sg19
I1200000
sg20
I698242
sg21
I240
sg22
I11
sg23
g33
sg34
I698242
sg35
I288542
sg36
I1490344
sg37
F0.275
sg38
g5
ssS'MULLER MARK S'
p86
(dp87
g3
I136
sg4
I842924
sg6
g5
sg7
I00
sg8
I1725545
sg9
S's..muller@enron.com'
p88
sg11
I-719000
sg12
F0.08823529411764706
sg13
g5
sg14
I114
sg15
g5
sg16
I16
sg17
I947
sg18
g5
sg19
I1100000
sg20
I1416848
sg21
I12
sg22
I0
sg23
g33
sg34
I360528
sg35
I251654
sg36
I3202070
sg37
F0.0
sg38
I1056320
ssS'JACKSON CHARLENE R'
p89
(dp90
g3
I258
sg4
g5
sg6
I10181
sg7
I00
sg8
g5
sg9
S'charlene.jackson@enron.com'
p91
sg11
g5
sg12
F0.09689922480620156
sg13
g5
sg14
I117
sg15
g5
sg16
I56
sg17
I2435
sg18
g5
sg19
I250000
sg20
I725735
sg21
I25
sg22
I19
sg23
g33
sg34
I540672
sg35
I288558
sg36
I551174
sg37
F0.3392857142857143
sg38
I185063
ssS'WESTFAHL RICHARD K'
p92
(dp93
g3
g5
sg4
g5
sg6
I51870
sg7
I00
sg8
I256191
sg9
S'dick.westfahl@enron.com'
p94
sg11
I-10800
sg12
I0
sg13
g5
sg14
g5
sg15
g5
sg16
g5
sg17
I401130
sg18
g5
sg19
g5
sg20
I384930
sg21
g5
sg22
g5
sg23
g41
sg34
I384930
sg35
I63744
sg36
I762135
sg37
I0
sg38
g5
ssS'WALTERS GARETH W'
p95
(dp96
g3
g5
sg4
I53625
sg6
I33785
sg7
I00
sg8
g5
sg9
g5
sg11
g5
sg12
I0
sg13
g5
sg14
g5
sg15
g5
sg16
g5
sg17
g5
sg18
g5
sg19
g5
sg20
I1030329
sg21
g5
sg22
g5
sg23
g41
sg34
g5
sg35
g5
sg36
I87410
sg37
I0
sg38
I1030329
ssS'WALLS JR ROBERT H'
p97
(dp98
g3
I671
sg4
g5
sg6
I50936
sg7
I00
sg8
I540751
sg9
S'rob.walls@enron.com'
p99
sg11
g5
sg12
F0.02533532041728763
sg13
g5
sg14
I215
sg15
g5
sg16
I146
sg17
I2
sg18
g5
sg19
I850000
sg20
I5898997
sg21
I17
sg22
I0
sg23
g33
sg34
I1552453
sg35
I357091
sg36
I1798780
sg37
F0.0
sg38
I4346544
ssS'KITCHEN LOUISE'
p100
(dp101
g3
I8305
sg4
g5
sg6
I5774
sg7
I00
sg8
g5
sg9
S'louise.kitchen@enron.com'
p102
sg11
g5
sg12
F0.030222757375075255
sg13
g5
sg14
I3669
sg15
g5
sg16
I1728
sg17
I93925
sg18
g5
sg19
I3100000
sg20
I547143
sg21
I251
sg22
I194
sg23
g33
sg34
I466101
sg35
I271442
sg36
I3471141
sg37
F0.11226851851851852
sg38
I81042
ssS'CHAN RONNIE'
p103
(dp104
g3
g5
sg4
g5
sg6
g5
sg7
I00
sg8
g5
sg9
g5
sg11
I-98784
sg12
I0
sg13
I-32460
sg14
g5
sg15
g5
sg16
g5
sg17
g5
sg18
I98784
sg19
g5
sg20
g5
sg21
g5
sg22
g5
sg23
g41
sg34
I32460
sg35
g5
sg36
g5
sg37
I0
sg38
g5
ssS'BELFER ROBERT'
p105
(dp106
g3
g5
sg4
I-102500
sg6
g5
sg7
I00
sg8
g5
sg9
g5
sg11
g5
sg12
I0
sg13
I44093
sg14
g5
sg15
g5
sg16
g5
sg17
g5
sg18
I3285
sg19
g5
sg20
I-44093
sg21
g5
sg22
g5
sg23
g41
sg34
g5
sg35
g5
sg36
I102500
sg37
I0
sg38
I3285
ssS'SHANKMAN JEFFREY A'
p107
(dp108
g3
I3221
sg4
g5
sg6
I178979
sg7
I00
sg8
I554422
sg9
S'jeffrey.shankman@enron.com'
p109
sg11
g5
sg12
F0.029183483390251473
sg13
g5
sg14
I1730
sg15
g5
sg16
I2681
sg17
I1191
sg18
g5
sg19
I2000000
sg20
I2072035
sg21
I94
sg22
I83
sg23
g33
sg34
I630137
sg35
I304110
sg36
I3038702
sg37
F0.030958597538232
sg38
I1441898
ssS'WODRASKA JOHN'
p110
(dp111
g3
g5
sg4
g5
sg6
g5
sg7
I00
sg8
g5
sg9
S'john.wodraska@enron.com'
p112
sg11
g5
sg12
I0
sg13
g5
sg14
g5
sg15
g5
sg16
g5
sg17
I189583
sg18
g5
sg19
g5
sg20
g5
sg21
g5
sg22
g5
sg23
g41
sg34
g5
sg35
g5
sg36
I189583
sg37
I0
sg38
g5
ssS'BERGSIEKER RICHARD P'
p113
(dp114
g3
I383
sg4
g5
sg6
I59175
sg7
I00
sg8
I180250
sg9
S'rick.bergsieker@enron.com'
p115
sg11
I-485813
sg12
F0.010443864229765013
sg13
g5
sg14
I233
sg15
g5
sg16
I59
sg17
I427316
sg18
g5
sg19
I250000
sg20
I659249
sg21
I4
sg22
I0
sg23
g33
sg34
I659249
sg35
I187922
sg36
I618850
sg37
F0.0
sg38
g5
ssS'URQUHART JOHN A'
p116
(dp117
g3
g5
sg4
g5
sg6
I228656
sg7
I00
sg8
g5
sg9
g5
sg11
I-36666
sg12
I0
sg13
g5
sg14
g5
sg15
g5
sg16
g5
sg17
g5
sg18
I36666
sg19
g5
sg20
g5
sg21
g5
sg22
g5
sg23
g41
sg34
g5
sg35
g5
sg36
I228656
sg37
I0
sg38
g5
ssS'BIBI PHILIPPE A'
p118
(dp119
g3
I1607
sg4
g5
sg6
I38559
sg7
I00
sg8
I369721
sg9
S'philippe.bibi@enron.com'
p120
sg11
g5
sg12
F0.01431238332296204
sg13
g5
sg14
I1336
sg15
g5
sg16
I40
sg17
I425688
sg18
g5
sg19
I1000000
sg20
I1843816
sg21
I23
sg22
I8
sg23
g33
sg34
I378082
sg35
I213625
sg36
I2047593
sg37
F0.2
sg38
I1465734
ssS'RIEKER PAULA H'
p121
(dp122
g3
I1328
sg4
I214678
sg6
I33271
sg7
I01
sg8
g5
sg9
S'paula.rieker@enron.com'
p123
sg11
I-100000
sg12
F0.02635542168674699
sg13
g5
sg14
I1258
sg15
g5
sg16
I82
sg17
I1950
sg18
g5
sg19
I700000
sg20
I1918887
sg21
I35
sg22
I48
sg23
g33
sg34
I283649
sg35
I249201
sg36
I1099100
sg37
F0.5853658536585366
sg38
I1635238
ssS'WHALEY DAVID A'
p124
(dp125
g3
g5
sg4
g5
sg6
g5
sg7
I00
sg8
g5
sg9
g5
sg11
g5
sg12
I0
sg13
g5
sg14
g5
sg15
g5
sg16
g5
sg17
g5
sg18
g5
sg19
g5
sg20
I98718
sg21
g5
sg22
g5
sg23
g41
sg34
g5
sg35
g5
sg36
g5
sg37
I0
sg38
I98718
ssS'BECK SALLY W'
p126
(dp127
g3
I7315
sg4
g5
sg6
I37172
sg7
I00
sg8
g5
sg9
S'sally.beck@enron.com'
p128
sg11
g5
sg12
F0.01968557758031442
sg13
g5
sg14
I2639
sg15
g5
sg16
I4343
sg17
I566
sg18
g5
sg19
I700000
sg20
I126027
sg21
I144
sg22
I386
sg23
g33
sg34
I126027
sg35
I231330
sg36
I969068
sg37
F0.08887865530739121
sg38
g5
ssS'HAUG DAVID L'
p129
(dp130
g3
I573
sg4
g5
sg6
I475
sg7
I00
sg8
g5
sg9
S'david.haug@enron.com'
p131
sg11
g5
sg12
F0.006980802792321117
sg13
g5
sg14
I471
sg15
g5
sg16
I19
sg17
g5
sg18
g5
sg19
g5
sg20
I2217299
sg21
I4
sg22
I7
sg23
g33
sg34
I2217299
sg35
g5
sg36
I475
sg37
F0.3684210526315789
sg38
g5
ssS'ECHOLS JOHN B'
p132
(dp133
g3
g5
sg4
g5
sg6
I21530
sg7
I00
sg8
I2234774
sg9
S'john.echols@enron.com'
p134
sg11
g5
sg12
I0
sg13
g5
sg14
g5
sg15
g5
sg16
g5
sg17
I53775
sg18
g5
sg19
I200000
sg20
I1008941
sg21
g5
sg22
g5
sg23
g41
sg34
I407503
sg35
I182245
sg36
I2692324
sg37
I0
sg38
I601438
ssS'MENDELSOHN JOHN'
p135
(dp136
g3
g5
sg4
g5
sg6
I148
sg7
I00
sg8
g5
sg9
g5
sg11
I-103750
sg12
I0
sg13
g5
sg14
g5
sg15
g5
sg16
g5
sg17
g5
sg18
I103750
sg19
g5
sg20
g5
sg21
g5
sg22
g5
sg23
g41
sg34
g5
sg35
g5
sg36
I148
sg37
I0
sg38
g5
ssS'HICKERSON GARY J'
p137
(dp138
g3
I1320
sg4
g5
sg6
I98849
sg7
I00
sg8
I69223
sg9
S'gary.hickerson@enron.com'
p139
sg11
g5
sg12
F0.030303030303030304
sg13
g5
sg14
I900
sg15
g5
sg16
I27
sg17
I1936
sg18
g5
sg19
I1700000
sg20
I441096
sg21
I40
sg22
I1
sg23
g33
sg34
I441096
sg35
I211788
sg36
I2081796
sg37
F0.037037037037037035
sg38
g5
ssS'CLINE KENNETH W'
p140
(dp141
g3
g5
sg4
g5
sg6
g5
sg7
I00
sg8
g5
sg9
g5
sg11
g5
sg12
I0
sg13
I-472568
sg14
g5
sg15
g5
sg16
g5
sg17
g5
sg18
g5
sg19
g5
sg20
I189518
sg21
g5
sg22
g5
sg23
g41
sg34
I662086
sg35
g5
sg36
g5
sg37
I0
sg38
g5
ssS'LEWIS RICHARD'
p142
(dp143
g3
I952
sg4
g5
sg6
g5
sg7
I00
sg8
g5
sg9
S'richard.lewis@enron.com'
p144
sg11
g5
sg12
F0.01050420168067227
sg13
g5
sg14
I739
sg15
g5
sg16
I26
sg17
g5
sg18
g5
sg19
g5
sg20
I850477
sg21
I10
sg22
I0
sg23
g33
sg34
g5
sg35
g5
sg36
g5
sg37
F0.0
sg38
I850477
ssS'HAYES ROBERT E'
p145
(dp146
g3
I504
sg4
I7961
sg6
g5
sg7
I00
sg8
g5
sg9
S'robert.hayes@enron.com'
p147
sg11
g5
sg12
F0.031746031746031744
sg13
g5
sg14
I50
sg15
g5
sg16
I12
sg17
g5
sg18
g5
sg19
g5
sg20
I151418
sg21
I16
sg22
I0
sg23
g33
sg34
I151418
sg35
g5
sg36
I7961
sg37
F0.0
sg38
g5
ssS'MCCARTY DANNY J'
p148
(dp149
g3
I1433
sg4
g5
sg6
g5
sg7
I00
sg8
g5
sg9
S'danny.mccarty@enron.com'
p150
sg11
g5
sg12
F0.017445917655268667
sg13
g5
sg14
I508
sg15
g5
sg16
I215
sg17
g5
sg18
g5
sg19
g5
sg20
I758931
sg21
I25
sg22
I2
sg23
g33
sg34
I94556
sg35
g5
sg36
g5
sg37
F0.009302325581395349
sg38
I664375
ssS'KOPPER MICHAEL J'
p151
(dp152
g3
g5
sg4
g5
sg6
I118134
sg7
I01
sg8
I602671
sg9
S'michael.kopper@enron.com'
p153
sg11
g5
sg12
I0
sg13
g5
sg14
g5
sg15
g5
sg16
g5
sg17
I907502
sg18
g5
sg19
I800000
sg20
I985032
sg21
g5
sg22
g5
sg23
g41
sg34
I985032
sg35
I224305
sg36
I2652612
sg37
I0
sg38
g5
ssS'LEFF DANIEL P'
p154
(dp155
g3
I2822
sg4
g5
sg6
g5
sg7
I00
sg8
I1387399
sg9
S'dan.leff@enron.com'
p156
sg11
g5
sg12
F0.02374202693125443
sg13
g5
sg14
I2672
sg15
g5
sg16
I63
sg17
I3083
sg18
g5
sg19
I1000000
sg20
I360528
sg21
I67
sg22
I14
sg23
g33
sg34
I360528
sg35
I273746
sg36
I2664228
sg37
F0.2222222222222222
sg38
g5
ssS'LAVORATO JOHN J'
p157
(dp158
g3
I7259
sg4
g5
sg6
I49537
sg7
I00
sg8
I2035380
sg9
S'john.lavorato@enron.com'
p159
sg11
g5
sg12
F0.07273729163796666
sg13
g5
sg14
I3962
sg15
g5
sg16
I2585
sg17
I1552
sg18
g5
sg19
I8000000
sg20
I5167144
sg21
I528
sg22
I411
sg23
g33
sg34
I1008149
sg35
I339288
sg36
I10425757
sg37
F0.15899419729206962
sg38
I4158995
ssS'BERBERIAN DAVID'
p160
(dp161
g3
g5
sg4
g5
sg6
I11892
sg7
I00
sg8
g5
sg9
S'david.berberian@enron.com'
p162
sg11
g5
sg12
I0
sg13
g5
sg14
g5
sg15
g5
sg16
g5
sg17
g5
sg18
g5
sg19
g5
sg20
I2493616
sg21
g5
sg22
g5
sg23
g41
sg34
I869220
sg35
I216582
sg36
I228474
sg37
I0
sg38
I1624396
ssS'DETMERING TIMOTHY J'
p163
(dp164
g3
g5
sg4
I875307
sg6
I52255
sg7
I00
sg8
I415657
sg9
S'timothy.detmering@enron.com'
p165
sg11
I-775241
sg12
I0
sg13
I-315068
sg14
g5
sg15
g5
sg16
g5
sg17
I1105
sg18
g5
sg19
I425000
sg20
I2027865
sg21
g5
sg22
g5
sg23
g41
sg34
I315068
sg35
I210500
sg36
I1204583
sg37
I0
sg38
I2027865
ssS'WAKEHAM JOHN'
p166
(dp167
g3
g5
sg4
g5
sg6
I103773
sg7
I00
sg8
g5
sg9
g5
sg11
g5
sg12
I0
sg13
g5
sg14
g5
sg15
g5
sg16
g5
sg17
g5
sg18
I109298
sg19
g5
sg20
g5
sg21
g5
sg22
g5
sg23
g41
sg34
g5
sg35
g5
sg36
I213071
sg37
I0
sg38
g5
ssS'POWERS WILLIAM'
p168
(dp169
g3
I653
sg4
g5
sg6
g5
sg7
I00
sg8
g5
sg9
S'ken.powers@enron.com'
p170
sg11
I-17500
sg12
F0.0
sg13
g5
sg14
I12
sg15
g5
sg16
I26
sg17
g5
sg18
I17500
sg19
g5
sg20
g5
sg21
I0
sg22
I0
sg23
g33
sg34
g5
sg35
g5
sg36
g5
sg37
F0.0
sg38
g5
ssS'GOLD JOSEPH'
p171
(dp172
g3
g5
sg4
g5
sg6
g5
sg7
I00
sg8
I304805
sg9
S'joe.gold@enron.com'
p173
sg11
g5
sg12
I0
sg13
g5
sg14
g5
sg15
g5
sg16
g5
sg17
I819288
sg18
g5
sg19
I750000
sg20
I877611
sg21
g5
sg22
g5
sg23
g41
sg34
I441096
sg35
I272880
sg36
I2146973
sg37
I0
sg38
I436515
ssS'BANNANTINE JAMES M'
p174
(dp175
g3
I566
sg4
g5
sg6
I56301
sg7
I00
sg8
g5
sg9
S'james.bannantine@enron.com'
p176
sg11
I-5104
sg12
F0.06890459363957598
sg13
I-560222
sg14
I465
sg15
g5
sg16
I29
sg17
I864523
sg18
g5
sg19
g5
sg20
I5243487
sg21
I39
sg22
I0
sg23
g33
sg34
I1757552
sg35
I477
sg36
I916197
sg37
F0.0
sg38
I4046157
ssS'DUNCAN JOHN H'
p177
(dp178
g3
g5
sg4
g5
sg6
g5
sg7
I00
sg8
g5
sg9
g5
sg11
I-25000
sg12
I0
sg13
g5
sg14
g5
sg15
g5
sg16
g5
sg17
g5
sg18
I102492
sg19
g5
sg20
I371750
sg21
g5
sg22
g5
sg23
g41
sg34
g5
sg35
g5
sg36
I77492
sg37
I0
sg38
I371750
ssS'SHAPIRO RICHARD S'
p179
(dp180
g3
I15149
sg4
g5
sg6
I137767
sg7
I00
sg8
g5
sg9
S'richard.shapiro@enron.com'
p181
sg11
g5
sg12
F0.0048848108786058485
sg13
g5
sg14
I4527
sg15
g5
sg16
I1215
sg17
I705
sg18
g5
sg19
I650000
sg20
I987001
sg21
I74
sg22
I65
sg23
g33
sg34
I379164
sg35
I269076
sg36
I1057548
sg37
F0.053497942386831275
sg38
I607837
ssS'SHERRIFF JOHN R'
p182
(dp183
g3
I3187
sg4
g5
sg6
g5
sg7
I00
sg8
I554422
sg9
S'john.sherriff@enron.com'
p184
sg11
g5
sg12
F0.008785691873235017
sg13
g5
sg14
I2103
sg15
g5
sg16
I92
sg17
I1852186
sg18
g5
sg19
I1500000
sg20
I3128982
sg21
I28
sg22
I23
sg23
g33
sg34
I1293424
sg35
I428780
sg36
I4335388
sg37
F0.25
sg38
I1835558
ssS'SHELBY REX'
p185
(dp186
g3
I225
sg4
g5
sg6
I22884
sg7
I01
sg8
g5
sg9
S'rex.shelby@enron.com'
p187
sg11
I-4167
sg12
F0.057777777777777775
sg13
g5
sg14
I91
sg15
g5
sg16
I39
sg17
I1573324
sg18
g5
sg19
I200000
sg20
I2493616
sg21
I13
sg22
I14
sg23
g33
sg34
I869220
sg35
I211844
sg36
I2003885
sg37
F0.358974358974359
sg38
I1624396
ssS'LEMAISTRE CHARLES'
p188
(dp189
g3
g5
sg4
g5
sg6
g5
sg7
I00
sg8
g5
sg9
g5
sg11
I-25000
sg12
I0
sg13
g5
sg14
g5
sg15
g5
sg16
g5
sg17
g5
sg18
I112492
sg19
g5
sg20
I412878
sg21
g5
sg22
g5
sg23
g41
sg34
g5
sg35
g5
sg36
I87492
sg37
I0
sg38
I412878
ssS'DEFFNER JOSEPH M'
p190
(dp191
g3
I714
sg4
g5
sg6
I41626
sg7
I00
sg8
I335349
sg9
S'joseph.deffner@enron.com'
p192
sg11
g5
sg12
F0.16106442577030813
sg13
g5
sg14
I552
sg15
g5
sg16
I74
sg17
I25553
sg18
g5
sg19
I600000
sg20
I159211
sg21
I115
sg22
I4
sg23
g33
sg34
I141833
sg35
I206121
sg36
I1208649
sg37
F0.05405405405405406
sg38
I17378
ssS'KISHKILL JOSEPH G'
p193
(dp194
g3
g5
sg4
g5
sg6
I116335
sg7
I00
sg8
g5
sg9
S'joe.kishkill@enron.com'
p195
sg11
I-51042
sg12
I0
sg13
g5
sg14
g5
sg15
g5
sg16
g5
sg17
I465357
sg18
g5
sg19
g5
sg20
I1034346
sg21
g5
sg22
g5
sg23
g41
sg34
I1034346
sg35
I174246
sg36
I704896
sg37
I0
sg38
g5
ssS'WHALLEY LAWRENCE G'
p196
(dp197
g3
I6019
sg4
g5
sg6
I57838
sg7
I00
sg8
I808346
sg9
S'greg.whalley@enron.com'
p198
sg11
g5
sg12
F0.03090214321315833
sg13
g5
sg14
I3920
sg15
g5
sg16
I556
sg17
I301026
sg18
g5
sg19
I3000000
sg20
I6079137
sg21
I186
sg22
I24
sg23
g33
sg34
I2796177
sg35
I510364
sg36
I4677574
sg37
F0.04316546762589928
sg38
I3282960
ssS'PIRO JIM'
p199
(dp200
g3
I58
sg4
g5
sg6
g5
sg7
I00
sg8
g5
sg9
S'jim.piro@enron.com'
p201
sg11
g5
sg12
F0.0
sg13
g5
sg14
I3
sg15
g5
sg16
I16
sg17
g5
sg18
g5
sg19
g5
sg20
I47304
sg21
I0
sg22
I1
sg23
g33
sg34
I47304
sg35
g5
sg36
g5
sg37
F0.0625
sg38
g5
ssS'MCCONNELL MICHAEL S'
p202
(dp203
g3
I3329
sg4
g5
sg6
I81364
sg7
I00
sg8
I554422
sg9
S'mike.mcconnell@enron.com'
p204
sg11
g5
sg12
F0.02763592670471613
sg13
g5
sg14
I2189
sg15
g5
sg16
I2742
sg17
I540
sg18
g5
sg19
I1100000
sg20
I3101279
sg21
I92
sg22
I194
sg23
g33
sg34
I1478269
sg35
I365038
sg36
I2101364
sg37
F0.07075127644055434
sg38
I1623010
ssS'DELAINEY DAVID W'
p205
(dp206
g3
I3093
sg4
g5
sg6
I86174
sg7
I01
sg8
I1294981
sg9
S'david.delainey@enron.com'
p207
sg11
g5
sg12
F0.02133850630455868
sg13
g5
sg14
I2097
sg15
g5
sg16
I3069
sg17
I1661
sg18
g5
sg19
I3000000
sg20
I3614261
sg21
I66
sg22
I609
sg23
g33
sg34
I1323148
sg35
I365163
sg36
I4747979
sg37
F0.198435972629521
sg38
I2291113
ssS'SULLIVAN-SHAKLOVITZ COLLEEN'
p208
(dp209
g3
g5
sg4
I181993
sg6
g5
sg7
I00
sg8
I554422
sg9
g5
sg11
g5
sg12
I0
sg13
g5
sg14
g5
sg15
g5
sg16
g5
sg17
I162
sg18
g5
sg19
I100000
sg20
I1362375
sg21
g5
sg22
g5
sg23
g41
sg34
g5
sg35
I162779
sg36
I999356
sg37
I0
sg38
I1362375
ssS'WROBEL BRUCE'
p210
(dp211
g3
g5
sg4
g5
sg6
g5
sg7
I00
sg8
g5
sg9
g5
sg11
g5
sg12
I0
sg13
g5
sg14
g5
sg15
g5
sg16
g5
sg17
g5
sg18
g5
sg19
g5
sg20
I139130
sg21
g5
sg22
g5
sg23
g41
sg34
g5
sg35
g5
sg36
g5
sg37
I0
sg38
I139130
ssS'LINDHOLM TOD A'
p212
(dp213
g3
g5
sg4
I204075
sg6
I57727
sg7
I00
sg8
I175000
sg9
S'tod.lindholm@enron.com'
p214
sg11
g5
sg12
I0
sg13
g5
sg14
g5
sg15
g5
sg16
g5
sg17
I2630
sg18
g5
sg19
I200000
sg20
I3064208
sg21
g5
sg22
g5
sg23
g41
sg34
I514847
sg35
I236457
sg36
I875889
sg37
I0
sg38
I2549361
ssS'MEYER JEROME J'
p215
(dp216
g3
g5
sg4
g5
sg6
I2151
sg7
I00
sg8
g5
sg9
g5
sg11
I-38346
sg12
I0
sg13
g5
sg14
g5
sg15
g5
sg16
g5
sg17
g5
sg18
I38346
sg19
g5
sg20
g5
sg21
g5
sg22
g5
sg23
g41
sg34
g5
sg35
g5
sg36
I2151
sg37
I0
sg38
g5
ssS'LAY KENNETH L'
p217
(dp218
g3
I4273
sg4
I202911
sg6
I99832
sg7
I01
sg8
I3600000
sg9
S'kenneth.lay@enron.com'
p219
sg11
I-300000
sg12
F0.028785396676807865
sg13
g5
sg14
I2411
sg15
I81525000
sg16
I36
sg17
I10359729
sg18
g5
sg19
I7000000
sg20
I49110078
sg21
I123
sg22
I16
sg23
g33
sg34
I14761694
sg35
I1072321
sg36
I103559793
sg37
F0.4444444444444444
sg38
I34348384
ssS'BUTTS ROBERT H'
p220
(dp221
g3
g5
sg4
g5
sg6
I9410
sg7
I00
sg8
I175000
sg9
S'bob.butts@enron.com'
p222
sg11
I-75000
sg12
I0
sg13
g5
sg14
g5
sg15
g5
sg16
g5
sg17
I150656
sg18
g5
sg19
I750000
sg20
I417619
sg21
g5
sg22
g5
sg23
g41
sg34
I417619
sg35
I261516
sg36
I1271582
sg37
I0
sg38
g5
ssS'OLSON CINDY K'
p223
(dp224
g3
I1184
sg4
I77716
sg6
I63791
sg7
I00
sg8
I100000
sg9
S'cindy.olson@enron.com'
p225
sg11
g5
sg12
F0.016891891891891893
sg13
g5
sg14
I856
sg15
g5
sg16
I52
sg17
I972
sg18
g5
sg19
I750000
sg20
I2606763
sg21
I20
sg22
I15
sg23
g33
sg34
I969729
sg35
I329078
sg36
I1321557
sg37
F0.28846153846153844
sg38
I1637034
ssS'MCDONALD REBECCA'
p226
(dp227
g3
I894
sg4
g5
sg6
g5
sg7
I00
sg8
g5
sg9
S'rebecca.mcdonald@enron.com'
p228
sg11
g5
sg12
F0.06040268456375839
sg13
g5
sg14
I720
sg15
g5
sg16
I13
sg17
g5
sg18
g5
sg19
g5
sg20
I1691366
sg21
I54
sg22
I1
sg23
g33
sg34
I934065
sg35
g5
sg36
g5
sg37
F0.07692307692307693
sg38
I757301
ssS'CUMBERLAND MICHAEL S'
p229
(dp230
g3
g5
sg4
g5
sg6
I22344
sg7
I00
sg8
I275000
sg9
g5
sg11
g5
sg12
I0
sg13
g5
sg14
g5
sg15
g5
sg16
g5
sg17
I713
sg18
g5
sg19
I325000
sg20
I207940
sg21
g5
sg22
g5
sg23
g41
sg34
I207940
sg35
I184899
sg36
I807956
sg37
I0
sg38
g5
ssS'GAHN ROBERT S'
p231
(dp232
g3
g5
sg4
I73122
sg6
I50080
sg7
I00
sg8
g5
sg9
g5
sg11
I-1042
sg12
I0
sg13
g5
sg14
g5
sg15
g5
sg16
g5
sg17
I76547
sg18
g5
sg19
I509870
sg20
I318607
sg21
g5
sg22
g5
sg23
g41
sg34
I235370
sg35
I192008
sg36
I900585
sg37
I0
sg38
I83237
ssS'MCCLELLAN GEORGE'
p233
(dp234
g3
I1744
sg4
g5
sg6
I228763
sg7
I00
sg8
g5
sg9
S'george.mcclellan@enron.com'
p235
sg11
I-125000
sg12
F0.02981651376146789
sg13
g5
sg14
I1469
sg15
g5
sg16
I49
sg17
I51587
sg18
g5
sg19
I900000
sg20
I947861
sg21
I52
sg22
I0
sg23
g24
(g28
S'\x01'
p236
tp237
Rp238
sg34
I441096
sg35
I263413
sg36
I1318763
sg37
F0.0
sg38
I506765
ssS'HERMANN ROBERT J'
p239
(dp240
g3
g5
sg4
g5
sg6
I48357
sg7
I00
sg8
I150000
sg9
S'robert.hermann@enron.com'
p241
sg11
I-280000
sg12
I0
sg13
g5
sg14
g5
sg15
g5
sg16
g5
sg17
I416441
sg18
g5
sg19
I700000
sg20
I668132
sg21
g5
sg22
g5
sg23
g41
sg34
I480632
sg35
I262663
sg36
I1297461
sg37
I0
sg38
I187500
ssS'SCRIMSHAW MATTHEW'
p242
(dp243
g3
g5
sg4
g5
sg6
g5
sg7
I00
sg8
g5
sg9
S'matthew.scrimshaw@enron.com'
p244
sg11
g5
sg12
I0
sg13
g5
sg14
g5
sg15
g5
sg16
g5
sg17
g5
sg18
g5
sg19
g5
sg20
I759557
sg21
g5
sg22
g5
sg23
g41
sg34
g5
sg35
g5
sg36
g5
sg37
I0
sg38
I759557
ssS'GATHMANN WILLIAM D'
p245
(dp246
g3
g5
sg4
g5
sg6
g5
sg7
I00
sg8
g5
sg9
g5
sg11
g5
sg12
I0
sg13
I-72419
sg14
g5
sg15
g5
sg16
g5
sg17
g5
sg18
g5
sg19
g5
sg20
I1945360
sg21
g5
sg22
g5
sg23
g41
sg34
I264013
sg35
g5
sg36
g5
sg37
I0
sg38
I1753766
ssS'HAEDICKE MARK E'
p247
(dp248
g3
I4009
sg4
I2157527
sg6
I76169
sg7
I00
sg8
I983346
sg9
S'mark.haedicke@enron.com'
p249
sg11
I-934484
sg12
F0.04489897730107259
sg13
I-329825
sg14
I1847
sg15
g5
sg16
I1941
sg17
I52382
sg18
g5
sg19
I1150000
sg20
I803094
sg21
I180
sg22
I61
sg23
g33
sg34
I524169
sg35
I374125
sg36
I3859065
sg37
F0.03142709943328181
sg38
I608750
ssS'BOWEN JR RAYMOND M'
p250
(dp251
g3
I1858
sg4
g5
sg6
I65907
sg7
I01
sg8
I974293
sg9
S'raymond.bowen@enron.com'
p252
sg11
I-833
sg12
F0.07534983853606028
sg13
g5
sg14
I1593
sg15
g5
sg16
I27
sg17
I1621
sg18
g5
sg19
I1350000
sg20
I252055
sg21
I140
sg22
I15
sg23
g33
sg34
I252055
sg35
I278601
sg36
I2669589
sg37
F0.5555555555555556
sg38
g5
ssS'GILLIS JOHN'
p253
(dp254
g3
g5
sg4
g5
sg6
g5
sg7
I00
sg8
g5
sg9
g5
sg11
g5
sg12
I0
sg13
g5
sg14
g5
sg15
g5
sg16
g5
sg17
g5
sg18
g5
sg19
g5
sg20
I85641
sg21
g5
sg22
g5
sg23
g41
sg34
I75838
sg35
g5
sg36
g5
sg37
I0
sg38
I9803
ssS'FITZGERALD JAY L'
p255
(dp256
g3
I936
sg4
g5
sg6
I23870
sg7
I00
sg8
I556416
sg9
S'jay.fitzgerald@enron.com'
p257
sg11
g5
sg12
F0.0010683760683760685
sg13
g5
sg14
I723
sg15
g5
sg16
I16
sg17
I285414
sg18
g5
sg19
I350000
sg20
I1621236
sg21
I1
sg22
I8
sg23
g33
sg34
I956775
sg35
I199157
sg36
I1414857
sg37
F0.5
sg38
I664461
ssS'MORAN MICHAEL P'
p258
(dp259
g3
I672
sg4
g5
sg6
g5
sg7
I00
sg8
g5
sg9
S'michael.moran@enron.com'
p260
sg11
g5
sg12
F0.0
sg13
g5
sg14
I127
sg15
g5
sg16
I19
sg17
g5
sg18
g5
sg19
g5
sg20
I221141
sg21
I0
sg22
I0
sg23
g33
sg34
I161602
sg35
g5
sg36
g5
sg37
F0.0
sg38
I59539
ssS'REDMOND BRIAN L'
p261
(dp262
g3
I1671
sg4
g5
sg6
I14689
sg7
I00
sg8
g5
sg9
S'brian.redmond@enron.com'
p263
sg11
g5
sg12
F0.12208258527827648
sg13
g5
sg14
I1063
sg15
g5
sg16
I221
sg17
g5
sg18
g5
sg19
g5
sg20
I7890324
sg21
I204
sg22
I49
sg23
g33
sg34
I381285
sg35
I96840
sg36
I111529
sg37
F0.22171945701357465
sg38
I7509039
ssS'BAZELIDES PHILIP J'
p264
(dp265
g3
g5
sg4
I684694
sg6
g5
sg7
I00
sg8
I93750
sg9
g5
sg11
g5
sg12
I0
sg13
g5
sg14
g5
sg15
g5
sg16
g5
sg17
I874
sg18
g5
sg19
g5
sg20
I1599641
sg21
g5
sg22
g5
sg23
g41
sg34
g5
sg35
I80818
sg36
I860136
sg37
I0
sg38
I1599641
ssS'BELDEN TIMOTHY N'
p266
(dp267
g3
I7991
sg4
I2144013
sg6
I17355
sg7
I01
sg8
g5
sg9
S'tim.belden@enron.com'
p268
sg11
I-2334434
sg12
F0.028532098610937303
sg13
g5
sg14
I5521
sg15
g5
sg16
I484
sg17
I210698
sg18
g5
sg19
I5249999
sg20
I1110705
sg21
I228
sg22
I108
sg23
g33
sg34
I157569
sg35
I213999
sg36
I5501630
sg37
F0.2231404958677686
sg38
I953136
ssS'DURAN WILLIAM D'
p269
(dp270
g3
I904
sg4
g5
sg6
I25785
sg7
I00
sg8
I1105218
sg9
S'w.duran@enron.com'
p271
sg11
g5
sg12
F0.1172566371681416
sg13
g5
sg14
I599
sg15
g5
sg16
I12
sg17
I1568
sg18
g5
sg19
I750000
sg20
I1640910
sg21
I106
sg22
I3
sg23
g33
sg34
I189041
sg35
I210692
sg36
I2093263
sg37
F0.25
sg38
I1451869
ssS'THORN TERENCE H'
p272
(dp273
g3
I266
sg4
I16586
sg6
I46145
sg7
I00
sg8
I200000
sg9
S'terence.thorn@enron.com'
p274
sg11
g5
sg12
F0.0
sg13
g5
sg14
I73
sg15
g5
sg16
I41
sg17
I426629
sg18
g5
sg19
g5
sg20
I4817796
sg21
I0
sg22
I0
sg23
g33
sg34
I365320
sg35
I222093
sg36
I911453
sg37
F0.0
sg38
I4452476
ssS'FASTOW ANDREW S'
p275
(dp276
g3
g5
sg4
g5
sg6
I55921
sg7
I01
sg8
I1736055
sg9
S'andrew.fastow@enron.com'
p277
sg11
I-1386055
sg12
I0
sg13
g5
sg14
g5
sg15
g5
sg16
g5
sg17
I277464
sg18
g5
sg19
I1300000
sg20
I1794412
sg21
g5
sg22
g5
sg23
g41
sg34
I1794412
sg35
I440698
sg36
I2424083
sg37
I0
sg38
g5
ssS'FOY JOE'
p278
(dp279
g3
I57
sg4
I181755
sg6
g5
sg7
I00
sg8
g5
sg9
S'tracy.foy@enron.com'
p280
sg11
g5
sg12
F0.0
sg13
g5
sg14
I2
sg15
g5
sg16
I13
sg17
g5
sg18
g5
sg19
g5
sg20
I343434
sg21
I0
sg22
I0
sg23
g33
sg34
g5
sg35
g5
sg36
I181755
sg37
F0.0
sg38
I343434
ssS'CALGER CHRISTOPHER F'
p281
(dp282
g3
I2598
sg4
g5
sg6
I35818
sg7
I01
sg8
I375304
sg9
S'christopher.calger@enron.com'
p283
sg11
I-262500
sg12
F0.07659738260200154
sg13
g5
sg14
I2188
sg15
g5
sg16
I144
sg17
I486
sg18
g5
sg19
I1250000
sg20
I126027
sg21
I199
sg22
I25
sg23
g33
sg34
I126027
sg35
I240189
sg36
I1639297
sg37
F0.1736111111111111
sg38
g5
ssS'RICE KENNETH D'
p284
(dp285
g3
I905
sg4
g5
sg6
I46950
sg7
I01
sg8
I1617011
sg9
S'ken.rice@enron.com'
p286
sg11
I-3504386
sg12
F0.04640883977900553
sg13
g5
sg14
I864
sg15
g5
sg16
I18
sg17
I174839
sg18
g5
sg19
I1750000
sg20
I22542539
sg21
I42
sg22
I4
sg23
g33
sg34
I2748364
sg35
I420636
sg36
I505050
sg37
F0.2222222222222222
sg38
I19794175
ssS'KAMINSKI WINCENTY J'
p287
(dp288
g3
I4607
sg4
g5
sg6
I83585
sg7
I00
sg8
I323466
sg9
S'vince.kaminski@enron.com'
p289
sg11
g5
sg12
F0.008899500759713479
sg13
g5
sg14
I583
sg15
g5
sg16
I14368
sg17
I4669
sg18
g5
sg19
I400000
sg20
I976037
sg21
I41
sg22
I171
sg23
g33
sg34
I126027
sg35
I275101
sg36
I1086821
sg37
F0.011901447661469933
sg38
I850010
ssS'LOCKHART EUGENE E'
p290
(dp291
g3
g5
sg4
g5
sg6
g5
sg7
I00
sg8
g5
sg9
g5
sg11
g5
sg12
I0
sg13
g5
sg14
g5
sg15
g5
sg16
g5
sg17
g5
sg18
g5
sg19
g5
sg20
g5
sg21
g5
sg22
g5
sg23
g41
sg34
g5
sg35
g5
sg36
g5
sg37
I0
sg38
g5
ssS'COX DAVID'
p292
(dp293
g3
I102
sg4
g5
sg6
I27861
sg7
I00
sg8
g5
sg9
S'chip.cox@enron.com'
p294
sg11
I-41250
sg12
F0.0
sg13
g5
sg14
I71
sg15
g5
sg16
I33
sg17
I494
sg18
g5
sg19
I800000
sg20
I495633
sg21
I0
sg22
I4
sg23
g33
sg34
I378082
sg35
I314288
sg36
I1101393
sg37
F0.12121212121212122
sg38
I117551
ssS'OVERDYKE JR JERE C'
p295
(dp296
g3
g5
sg4
g5
sg6
I18834
sg7
I00
sg8
I135836
sg9
S'jere.overdyke@enron.com'
p297
sg11
g5
sg12
I0
sg13
g5
sg14
g5
sg15
g5
sg16
g5
sg17
I176
sg18
g5
sg19
g5
sg20
I7307594
sg21
g5
sg22
g5
sg23
g41
sg34
I2041016
sg35
I94941
sg36
I249787
sg37
I0
sg38
I5266578
ssS'PEREIRA PAULO V. FERRAZ'
p298
(dp299
g3
g5
sg4
g5
sg6
I27942
sg7
I00
sg8
g5
sg9
g5
sg11
I-101250
sg12
I0
sg13
g5
sg14
g5
sg15
g5
sg16
g5
sg17
g5
sg18
I101250
sg19
g5
sg20
g5
sg21
g5
sg22
g5
sg23
g41
sg34
g5
sg35
g5
sg36
I27942
sg37
I0
sg38
g5
ssS'STABLER FRANK'
p300
(dp301
g3
g5
sg4
g5
sg6
I16514
sg7
I00
sg8
g5
sg9
S'frank.stabler@enron.com'
p302
sg11
g5
sg12
I0
sg13
g5
sg14
g5
sg15
g5
sg16
g5
sg17
I356071
sg18
g5
sg19
I500000
sg20
I511734
sg21
g5
sg22
g5
sg23
g41
sg34
I511734
sg35
I239502
sg36
I1112087
sg37
I0
sg38
g5
ssS'SKILLING JEFFREY K'
p303
(dp304
g3
I3627
sg4
g5
sg6
I29336
sg7
I01
sg8
I1920000
sg9
S'jeff.skilling@enron.com'
p305
sg11
g5
sg12
F0.0242624758753791
sg13
g5
sg14
I2042
sg15
g5
sg16
I108
sg17
I22122
sg18
g5
sg19
I5600000
sg20
I26093672
sg21
I88
sg22
I30
sg23
g33
sg34
I6843672
sg35
I1111258
sg36
I8682716
sg37
F0.2777777777777778
sg38
I19250000
ssS'BLAKE JR. NORMAN P'
p306
(dp307
g3
g5
sg4
g5
sg6
I1279
sg7
I00
sg8
g5
sg9
g5
sg11
I-113784
sg12
I0
sg13
g5
sg14
g5
sg15
g5
sg16
g5
sg17
g5
sg18
I113784
sg19
g5
sg20
g5
sg21
g5
sg22
g5
sg23
g41
sg34
g5
sg35
g5
sg36
I1279
sg37
I0
sg38
g5
ssS'SHERRICK JEFFREY B'
p308
(dp309
g3
I613
sg4
g5
sg6
g5
sg7
I00
sg8
g5
sg9
S'jeffrey.sherrick@enron.com'
p310
sg11
g5
sg12
F0.0636215334420881
sg13
g5
sg14
I583
sg15
g5
sg16
I25
sg17
g5
sg18
g5
sg19
g5
sg20
I1832468
sg21
I39
sg22
I18
sg23
g33
sg34
I405999
sg35
g5
sg36
g5
sg37
F0.72
sg38
I1426469
ssS'PRENTICE JAMES'
p311
(dp312
g3
g5
sg4
I564348
sg6
g5
sg7
I00
sg8
g5
sg9
S'james.prentice@enron.com'
p313
sg11
g5
sg12
I0
sg13
g5
sg14
g5
sg15
g5
sg16
g5
sg17
g5
sg18
g5
sg19
g5
sg20
I1095040
sg21
g5
sg22
g5
sg23
g41
sg34
I208809
sg35
g5
sg36
I564348
sg37
I0
sg38
I886231
ssS'GRAY RODNEY'
p314
(dp315
g3
g5
sg4
I93585
sg6
g5
sg7
I00
sg8
I365625
sg9
g5
sg11
g5
sg12
I0
sg13
g5
sg14
g5
sg15
g5
sg16
g5
sg17
I680833
sg18
g5
sg19
g5
sg20
g5
sg21
g5
sg22
g5
sg23
g41
sg34
g5
sg35
I6615
sg36
I1146658
sg37
I0
sg38
g5
ssS'PICKERING MARK R'
p316
(dp317
g3
I898
sg4
g5
sg6
I31653
sg7
I00
sg8
g5
sg9
S'mark.pickering@enron.com'
p318
sg11
g5
sg12
F0.0077951002227171495
sg13
g5
sg14
I728
sg15
I400000
sg16
I67
sg17
g5
sg18
g5
sg19
I300000
sg20
I28798
sg21
I7
sg22
I0
sg23
g33
sg34
g5
sg35
I655037
sg36
I1386690
sg37
F0.0
sg38
I28798
ssS'THE TRAVEL AGENCY IN THE PARK'
p319
(dp320
g3
g5
sg4
g5
sg6
g5
sg7
I00
sg8
g5
sg9
g5
sg11
g5
sg12
I0
sg13
g5
sg14
g5
sg15
g5
sg16
g5
sg17
I362096
sg18
g5
sg19
g5
sg20
g5
sg21
g5
sg22
g5
sg23
g41
sg34
g5
sg35
g5
sg36
I362096
sg37
I0
sg38
g5
ssS'NOLES JAMES L'
p321
(dp322
g3
g5
sg4
I774401
sg6
g5
sg7
I00
sg8
g5
sg9
g5
sg11
g5
sg12
I0
sg13
I-94556
sg14
g5
sg15
g5
sg16
g5
sg17
g5
sg18
g5
sg19
g5
sg20
I368705
sg21
g5
sg22
g5
sg23
g41
sg34
I463261
sg35
g5
sg36
I774401
sg37
I0
sg38
g5
ssS'KEAN STEVEN J'
p323
(dp324
g3
I12754
sg4
g5
sg6
I41953
sg7
I00
sg8
I300000
sg9
S'steven.kean@enron.com'
p325
sg11
g5
sg12
F0.010976948408342482
sg13
g5
sg14
I3639
sg15
g5
sg16
I6759
sg17
I1231
sg18
g5
sg19
I1000000
sg20
I6153642
sg21
I140
sg22
I387
sg23
g33
sg34
I4131594
sg35
I404338
sg36
I1747522
sg37
F0.05725699067909454
sg38
I2022048
ssS'FOWLER PEGGY'
p326
(dp327
g3
I517
sg4
g5
sg6
g5
sg7
I00
sg8
g5
sg9
S'kulvinder.fowler@enron.com'
p328
sg11
g5
sg12
F0.0
sg13
g5
sg14
I10
sg15
g5
sg16
I36
sg17
g5
sg18
g5
sg19
g5
sg20
I1884748
sg21
I0
sg22
I0
sg23
g33
sg34
I560170
sg35
g5
sg36
g5
sg37
F0.0
sg38
I1324578
ssS'WASAFF GEORGE'
p329
(dp330
g3
I400
sg4
I831299
sg6
g5
sg7
I00
sg8
I200000
sg9
S'george.wasaff@enron.com'
p331
sg11
I-583325
sg12
F0.055
sg13
g5
sg14
I337
sg15
g5
sg16
I30
sg17
I1425
sg18
g5
sg19
I325000
sg20
I2056427
sg21
I22
sg22
I7
sg23
g33
sg34
I388167
sg35
I259996
sg36
I1034395
sg37
F0.23333333333333334
sg38
I1668260
ssS'WHITE JR THOMAS E'
p332
(dp333
g3
g5
sg4
g5
sg6
I81353
sg7
I00
sg8
g5
sg9
S'thomas.white@enron.com'
p334
sg11
g5
sg12
I0
sg13
g5
sg14
g5
sg15
g5
sg16
g5
sg17
I1085463
sg18
g5
sg19
I450000
sg20
I15144123
sg21
g5
sg22
g5
sg23
g41
sg34
I13847074
sg35
I317543
sg36
I1934359
sg37
I0
sg38
I1297049
ssS'CHRISTODOULOU DIOMEDES'
p335
(dp336
g3
g5
sg4
g5
sg6
g5
sg7
I00
sg8
g5
sg9
S'diomedes.christodoulou@enron.com'
p337
sg11
g5
sg12
I0
sg13
g5
sg14
g5
sg15
g5
sg16
g5
sg17
g5
sg18
g5
sg19
g5
sg20
I6077885
sg21
g5
sg22
g5
sg23
g41
sg34
I950730
sg35
g5
sg36
g5
sg37
I0
sg38
I5127155
ssS'ALLEN PHILLIP K'
p338
(dp339
g3
I2902
sg4
I2869717
sg6
I13868
sg7
I00
sg8
I304805
sg9
S'phillip.allen@enron.com'
p340
sg11
I-3081055
sg12
F0.016195727084769126
sg13
I-126027
sg14
I1407
sg15
g5
sg16
I2195
sg17
I152
sg18
g5
sg19
I4175000
sg20
I1729541
sg21
I47
sg22
I65
sg23
g33
sg34
I126027
sg35
I201955
sg36
I4484442
sg37
F0.029612756264236904
sg38
I1729541
ssS'SHARP VICTORIA T'
p341
(dp342
g3
I3136
sg4
I187469
sg6
I116337
sg7
I00
sg8
I422158
sg9
S'vicki.sharp@enron.com'
p343
sg11
g5
sg12
F0.007653061224489796
sg13
g5
sg14
I2477
sg15
g5
sg16
I136
sg17
I2401
sg18
g5
sg19
I600000
sg20
I494136
sg21
I24
sg22
I6
sg23
g33
sg34
I213063
sg35
I248146
sg36
I1576511
sg37
F0.04411764705882353
sg38
I281073
ssS'JAEDICKE ROBERT'
p344
(dp345
g3
g5
sg4
g5
sg6
g5
sg7
I00
sg8
g5
sg9
g5
sg11
I-25000
sg12
I0
sg13
I-44093
sg14
g5
sg15
g5
sg16
g5
sg17
g5
sg18
I108750
sg19
g5
sg20
I431750
sg21
g5
sg22
g5
sg23
g41
sg34
I44093
sg35
g5
sg36
I83750
sg37
I0
sg38
I431750
ssS'WINOKUR JR. HERBERT S'
p346
(dp347
g3
g5
sg4
g5
sg6
I1413
sg7
I00
sg8
g5
sg9
g5
sg11
I-25000
sg12
I0
sg13
g5
sg14
g5
sg15
g5
sg16
g5
sg17
g5
sg18
I108579
sg19
g5
sg20
g5
sg21
g5
sg22
g5
sg23
g41
sg34
g5
sg35
g5
sg36
I84992
sg37
I0
sg38
g5
ssS'BROWN MICHAEL'
p348
(dp349
g3
I1486
sg4
g5
sg6
I49288
sg7
I00
sg8
g5
sg9
S'michael.brown@enron.com'
p350
sg11
g5
sg12
F0.008748317631224764
sg13
g5
sg14
I761
sg15
g5
sg16
I41
sg17
g5
sg18
g5
sg19
g5
sg20
g5
sg21
I13
sg22
I1
sg23
g33
sg34
g5
sg35
g5
sg36
I49288
sg37
F0.024390243902439025
sg38
g5
ssS'BADUM JAMES P'
p351
(dp352
g3
g5
sg4
I178980
sg6
I3486
sg7
I00
sg8
g5
sg9
g5
sg11
g5
sg12
I0
sg13
g5
sg14
g5
sg15
g5
sg16
g5
sg17
g5
sg18
g5
sg19
g5
sg20
I257817
sg21
g5
sg22
g5
sg23
g41
sg34
g5
sg35
g5
sg36
I182466
sg37
I0
sg38
I257817
ssS'HUGHES JAMES A'
p353
(dp354
g3
I719
sg4
g5
sg6
g5
sg7
I00
sg8
g5
sg9
S'james.hughes@enron.com'
p355
sg11
g5
sg12
F0.048678720445062586
sg13
g5
sg14
I589
sg15
g5
sg16
I34
sg17
g5
sg18
g5
sg19
g5
sg20
I1118394
sg21
I35
sg22
I5
sg23
g33
sg34
I363428
sg35
g5
sg36
g5
sg37
F0.14705882352941177
sg38
I754966
ssS'REYNOLDS LAWRENCE'
p356
(dp357
g3
g5
sg4
I51365
sg6
I8409
sg7
I00
sg8
I156250
sg9
g5
sg11
I-200000
sg12
I0
sg13
I-140264
sg14
g5
sg15
g5
sg16
g5
sg17
I202052
sg18
g5
sg19
I100000
sg20
I4221891
sg21
g5
sg22
g5
sg23
g41
sg34
I201483
sg35
I76399
sg36
I394475
sg37
I0
sg38
I4160672
ssS'DIMICHELE RICHARD G'
p358
(dp359
g3
g5
sg4
g5
sg6
I35812
sg7
I00
sg8
I694862
sg9
S'richard.dimichele@enron.com'
p360
sg11
g5
sg12
I0
sg13
g5
sg14
g5
sg15
g5
sg16
g5
sg17
I374689
sg18
g5
sg19
I1000000
sg20
I8317782
sg21
g5
sg22
g5
sg23
g41
sg34
I126027
sg35
I262788
sg36
I2368151
sg37
I0
sg38
I8191755
ssS'BHATNAGAR SANJAY'
p361
(dp362
g3
I523
sg4
g5
sg6
g5
sg7
I00
sg8
g5
sg9
S'sanjay.bhatnagar@enron.com'
p363
sg11
g5
sg12
F0.0
sg13
I15456290
sg14
I463
sg15
g5
sg16
I29
sg17
I137864
sg18
I137864
sg19
g5
sS'total_stock_value'
p364
S'NaN'
p365
sg21
I0
sg22
I1
sg23
g33
sg34
I-2604490
sg35
g5
sg36
I15456290
sg37
F0.034482758620689655
sg38
I2604490
ssS'CARTER REBECCA C'
p366
(dp367
g3
I312
sg4
g5
sg6
g5
sg7
I00
sg8
I75000
sg9
S'rebecca.carter@enron.com'
p368
sg11
I-159792
sg12
F0.09294871794871795
sg13
I-307301
sg14
I196
sg15
g5
sg16
I15
sg17
I540
sg18
g5
sg19
I300000
sg20
g5
sg21
I29
sg22
I7
sg23
g33
sg34
I307301
sg35
I261809
sg36
I477557
sg37
F0.4666666666666667
sg38
g5
ssS'BUCHANAN HAROLD G'
p369
(dp370
g3
I1088
sg4
g5
sg6
I600
sg7
I00
sg8
I304805
sg9
S'john.buchanan@enron.com'
p371
sg11
g5
sg12
F0.0
sg13
g5
sg14
I23
sg15
g5
sg16
I125
sg17
I1215
sg18
g5
sg19
I500000
sg20
I1014505
sg21
I0
sg22
I0
sg23
g33
sg34
I189041
sg35
I248017
sg36
I1054637
sg37
F0.0
sg38
I825464
ssS'YEAP SOON'
p372
(dp373
g3
g5
sg4
g5
sg6
I55097
sg7
I00
sg8
g5
sg9
g5
sg11
g5
sg12
I0
sg13
g5
sg14
g5
sg15
g5
sg16
g5
sg17
g5
sg18
g5
sg19
g5
sg20
I192758
sg21
g5
sg22
g5
sg23
g41
sg34
g5
sg35
g5
sg36
I55097
sg37
I0
sg38
I192758
ssS'MURRAY JULIA H'
p374
(dp375
g3
I2192
sg4
g5
sg6
I57580
sg7
I00
sg8
I125000
sg9
S'julia.murray@enron.com'
p376
sg11
g5
sg12
F0.005018248175182482
sg13
g5
sg14
I395
sg15
g5
sg16
I45
sg17
I330
sg18
g5
sg19
I400000
sg20
I597461
sg21
I11
sg22
I2
sg23
g33
sg34
I196983
sg35
I229284
sg36
I812194
sg37
F0.044444444444444446
sg38
I400478
ssS'GARLAND C KEVIN'
p377
(dp378
g3
I209
sg4
g5
sg6
I48405
sg7
I00
sg8
I375304
sg9
S'kevin.garland@enron.com'
p379
sg11
g5
sg12
F0.04784688995215311
sg13
g5
sg14
I178
sg15
g5
sg16
I44
sg17
I60814
sg18
g5
sg19
I850000
sg20
I896153
sg21
I10
sg22
I27
sg23
g33
sg34
I259907
sg35
I231946
sg36
I1566469
sg37
F0.6136363636363636
sg38
I636246
ssS'DODSON KEITH'
p380
(dp381
g3
I176
sg4
g5
sg6
I28164
sg7
I00
sg8
g5
sg9
S'keith.dodson@enron.com'
p382
sg11
g5
sg12
F0.056818181818181816
sg13
g5
sg14
I114
sg15
g5
sg16
I14
sg17
I774
sg18
g5
sg19
I70000
sg20
g5
sg21
I10
sg22
I3
sg23
g33
sg34
g5
sg35
I221003
sg36
I319941
sg37
F0.21428571428571427
sg38
g5
ssS'YEAGER F SCOTT'
p383
(dp384
g3
g5
sg4
g5
sg6
I53947
sg7
I01
sg8
g5
sg9
S'scott.yeager@enron.com'
p385
sg11
g5
sg12
I0
sg13
g5
sg14
g5
sg15
g5
sg16
g5
sg17
I147950
sg18
g5
sg19
g5
sg20
I11884758
sg21
g5
sg22
g5
sg23
g41
sg34
I3576206
sg35
I158403
sg36
I360300
sg37
I0
sg38
I8308552
ssS'HIRKO JOSEPH'
p386
(dp387
g3
g5
sg4
I10259
sg6
I77978
sg7
I01
sg8
g5
sg9
S'joe.hirko@enron.com'
p388
sg11
g5
sg12
I0
sg13
g5
sg14
g5
sg15
g5
sg16
g5
sg17
I2856
sg18
g5
sg19
g5
sg20
I30766064
sg21
g5
sg22
g5
sg23
g41
sg34
g5
sg35
g5
sg36
I91093
sg37
I0
sg38
I30766064
ssS'DIETRICH JANET R'
p389
(dp390
g3
I2572
sg4
g5
sg6
I3475
sg7
I00
sg8
I556416
sg9
S'janet.dietrich@enron.com'
p391
sg11
g5
sg12
F0.11858475894245724
sg13
g5
sg14
I1902
sg15
g5
sg16
I63
sg17
I473
sg18
g5
sg19
I600000
sg20
I1865087
sg21
I305
sg22
I14
sg23
g33
sg34
I315068
sg35
I250100
sg36
I1410464
sg37
F0.2222222222222222
sg38
I1550019
ssS'DERRICK JR. JAMES V'
p392
(dp393
g3
I2181
sg4
g5
sg6
I51124
sg7
I00
sg8
I484000
sg9
S'james.derrick@enron.com'
p394
sg11
I-1284000
sg12
F0.029344337459880788
sg13
I-1787380
sg14
I1401
sg15
g5
sg16
I909
sg17
I7482
sg18
g5
sg19
I800000
sg20
I8831913
sg21
I64
sg22
I20
sg23
g33
sg34
I1787380
sg35
I492375
sg36
I550981
sg37
F0.022002200220022004
sg38
I8831913
ssS'FREVERT MARK A'
p395
(dp396
g3
I3275
sg4
I6426990
sg6
I86987
sg7
I00
sg8
I1617011
sg9
S'mark.frevert@enron.com'
p397
sg11
I-3367011
sg12
F0.07389312977099237
sg13
g5
sg14
I2979
sg15
I2000000
sg16
I21
sg17
I7427621
sg18
g5
sg19
I2000000
sg20
I14622185
sg21
I242
sg22
I6
sg23
g33
sg34
I4188667
sg35
I1060932
sg36
I17252530
sg37
F0.2857142857142857
sg38
I10433518
ssS'PAI LOU L'
p398
(dp399
g3
g5
sg4
g5
sg6
I32047
sg7
I00
sg8
g5
sg9
S'lou.pai@enron.com'
p400
sg11
g5
sg12
I0
sg13
g5
sg14
g5
sg15
g5
sg16
g5
sg17
I1829457
sg18
g5
sg19
I1000000
sg20
I23817930
sg21
g5
sg22
g5
sg23
g41
sg34
I8453763
sg35
I261879
sg36
I3123383
sg37
I0
sg38
I15364167
ssS'BAY FRANKLIN R'
p401
(dp402
g3
g5
sg4
I260455
sg6
I129142
sg7
I00
sg8
g5
sg9
S'frank.bay@enron.com'
p403
sg11
I-201641
sg12
I0
sg13
I-82782
sg14
g5
sg15
g5
sg16
g5
sg17
I69
sg18
g5
sg19
I400000
sg20
I63014
sg21
g5
sg22
g5
sg23
g41
sg34
I145796
sg35
I239671
sg36
I827696
sg37
I0
sg38
g5
ssS'HAYSLETT RODERICK J'
p404
(dp405
g3
I2649
sg4
g5
sg6
g5
sg7
I00
sg8
g5
sg9
S'rod.hayslett@enron.com'
p406
sg11
g5
sg12
F0.01321253303133258
sg13
g5
sg14
I571
sg15
g5
sg16
I1061
sg17
g5
sg18
g5
sg19
g5
sg20
I346663
sg21
I35
sg22
I38
sg23
g33
sg34
I346663
sg35
g5
sg36
g5
sg37
F0.03581526861451461
sg38
g5
ssS'FUGH JOHN L'
p407
(dp408
g3
g5
sg4
I50591
sg6
g5
sg7
I00
sg8
g5
sg9
g5
sg11
g5
sg12
I0
sg13
g5
sg14
g5
sg15
g5
sg16
g5
sg17
g5
sg18
g5
sg19
g5
sg20
I176378
sg21
g5
sg22
g5
sg23
g41
sg34
g5
sg35
g5
sg36
I50591
sg37
I0
sg38
I176378
ssS'FALLON JAMES B'
p409
(dp410
g3
I1755
sg4
g5
sg6
I95924
sg7
I00
sg8
I374347
sg9
S'jim.fallon@enron.com'
p411
sg11
g5
sg12
F0.023931623931623933
sg13
g5
sg14
I1604
sg15
g5
sg16
I75
sg17
I401481
sg18
g5
sg19
I2500000
sg20
I2332399
sg21
I42
sg22
I37
sg23
g33
sg34
I1392142
sg35
I304588
sg36
I3676340
sg37
F0.49333333333333335
sg38
I940257
ssS'KOENIG MARK E'
p412
(dp413
g3
I2374
sg4
g5
sg6
I127017
sg7
I01
sg8
I300000
sg9
S'mark.koenig@enron.com'
p414
sg11
g5
sg12
F0.02232518955349621
sg13
g5
sg14
I2271
sg15
g5
sg16
I61
sg17
I150458
sg18
g5
sg19
I700000
sg20
I1920055
sg21
I53
sg22
I15
sg23
g33
sg34
I1248318
sg35
I309946
sg36
I1587421
sg37
F0.2459016393442623
sg38
I671737
ssS'SAVAGE FRANK'
p415
(dp416
g3
g5
sg4
g5
sg6
g5
sg7
I00
sg8
g5
sg9
g5
sg11
I-121284
sg12
I0
sg13
g5
sg14
g5
sg15
g5
sg16
g5
sg17
g5
sg18
I125034
sg19
g5
sg20
g5
sg21
g5
sg22
g5
sg23
g41
sg34
g5
sg35
g5
sg36
I3750
sg37
I0
sg38
g5
ssS'IZZO LAWRENCE L'
p417
(dp418
g3
I496
sg4
g5
sg6
I28093
sg7
I00
sg8
I312500
sg9
S'larry.izzo@enron.com'
p419
sg11
g5
sg12
F0.056451612903225805
sg13
g5
sg14
I437
sg15
g5
sg16
I19
sg17
I1553729
sg18
g5
sg19
g5
sg20
I5819980
sg21
I28
sg22
I5
sg23
g33
sg34
I3654808
sg35
I85274
sg36
I1979596
sg37
F0.2631578947368421
sg38
I2165172
ssS'TILNEY ELIZABETH A'
p420
(dp421
g3
I460
sg4
g5
sg6
g5
sg7
I00
sg8
I275000
sg9
S'elizabeth.tilney@enron.com'
p422
sg11
I-575000
sg12
F0.021739130434782608
sg13
g5
sg14
I379
sg15
g5
sg16
I19
sg17
I152055
sg18
g5
sg19
I300000
sg20
I1168042
sg21
I10
sg22
I11
sg23
g33
sg34
I576792
sg35
I247338
sg36
I399393
sg37
F0.5789473684210527
sg38
I591250
ssS'MARTIN AMANDA K'
p423
(dp424
g3
I1522
sg4
I85430
sg6
I8211
sg7
I00
sg8
I5145434
sg9
S'a..martin@enron.com'
p425
sg11
g5
sg12
F0.005256241787122208
sg13
g5
sg14
I477
sg15
g5
sg16
I230
sg17
I2818454
sg18
g5
sg19
g5
sg20
I2070306
sg21
I8
sg22
I0
sg23
g33
sg34
g5
sg35
I349487
sg36
I8407016
sg37
F0.0
sg38
I2070306
ssS'BUY RICHARD B'
p426
(dp427
g3
I3523
sg4
I649584
sg6
g5
sg7
I00
sg8
I769862
sg9
S'rick.buy@enron.com'
p428
sg11
I-694862
sg12
F0.04428044280442804
sg13
g5
sg14
I2333
sg15
g5
sg16
I1053
sg17
I400572
sg18
g5
sg19
I900000
sg20
I3444470
sg21
I156
sg22
I71
sg23
g33
sg34
I901657
sg35
I330546
sg36
I2355702
sg37
F0.06742640075973409
sg38
I2542813
ssS'GRAMM WENDY L'
p429
(dp430
g3
g5
sg4
g5
sg6
g5
sg7
I00
sg8
g5
sg9
g5
sg11
g5
sg12
I0
sg13
g5
sg14
g5
sg15
g5
sg16
g5
sg17
g5
sg18
I119292
sg19
g5
sg20
g5
sg21
g5
sg22
g5
sg23
g41
sg34
g5
sg35
g5
sg36
I119292
sg37
I0
sg38
g5
ssS'CAUSEY RICHARD A'
p431
(dp432
g3
I1892
sg4
g5
sg6
I30674
sg7
I01
sg8
I350000
sg9
S'richard.causey@enron.com'
p433
sg11
I-235000
sg12
F0.0306553911205074
sg13
g5
sg14
I1585
sg15
g5
sg16
I49
sg17
I307895
sg18
g5
sg19
I1000000
sg20
I2502063
sg21
I58
sg22
I12
sg23
g33
sg34
I2502063
sg35
I415189
sg36
I1868758
sg37
F0.24489795918367346
sg38
g5
ssS'TAYLOR MITCHELL S'
p434
(dp435
g3
I533
sg4
I227449
sg6
g5
sg7
I00
sg8
g5
sg9
S'mitchell.taylor@enron.com'
p436
sg11
g5
sg12
F0.0
sg13
g5
sg14
I300
sg15
g5
sg16
I29
sg17
g5
sg18
g5
sg19
I600000
sg20
I3745048
sg21
I0
sg22
I0
sg23
g33
sg34
I563798
sg35
I265214
sg36
I1092663
sg37
F0.0
sg38
I3181250
ssS'DONAHUE JR JEFFREY M'
p437
(dp438
g3
I865
sg4
g5
sg6
I96268
sg7
I00
sg8
g5
sg9
S'jeff.donahue@enron.com'
p439
sg11
I-300000
sg12
F0.21734104046242775
sg13
g5
sg14
I772
sg15
g5
sg16
I22
sg17
I891
sg18
g5
sg19
I800000
sg20
I1080988
sg21
I188
sg22
I11
sg23
g33
sg34
I315068
sg35
I278601
sg36
I875760
sg37
F0.5
sg38
I765920
ssS'GLISAN JR BEN F'
p440
(dp441
g3
I873
sg4
g5
sg6
I125978
sg7
I01
sg8
I71023
sg9
S'ben.glisan@enron.com'
p442
sg11
g5
sg12
F0.05956471935853379
sg13
g5
sg14
I874
sg15
g5
sg16
I16
sg17
I200308
sg18
g5
sg19
I600000
sg20
I778546
sg21
I52
sg22
I6
sg23
g238
sg34
I393818
sg35
I274975
sg36
I1272284
sg37
F0.375
sg38
I384728
ss.